target datalayout = "e-m:e-p270:32:32-p271:32:32-p272:64:64-i64:64-i128:128-f80:128-n8:16:32:64-S128"
target triple = "x86_64-pc-linux-gnu"

%struct.grpc_slice = type { ptr, %"union.grpc_slice::grpc_slice_data" }
%"union.grpc_slice::grpc_slice_data" = type { %"struct.grpc_slice::grpc_slice_data::grpc_slice_refcounted", [8 x i8] }
%"struct.grpc_slice::grpc_slice_data::grpc_slice_refcounted" = type { i64, ptr }
%struct.grpc_slice_buffer = type { ptr, ptr, i64, i64, i64, [6 x %struct.grpc_slice] }

; Function Attrs: inlinehint mustprogress nounwind uwtable
define linkonce_odr void @_ZSt4swapImENSt9enable_ifIXsr6__and_ISt6__not_ISt15__is_tuple_likeIT_EESt21is_move_constructibleIS3_ESt18is_move_assignableIS3_EEE5valueEvE4typeERS3_SC_(ptr noundef nonnull align 8 dereferenceable(8) %0, ptr noundef nonnull align 8 dereferenceable(8) %1) #13 comdat {
  %3 = alloca ptr, align 8
  %4 = alloca ptr, align 8
  %5 = alloca i64, align 8
  store ptr %0, ptr %3, align 8, !tbaa !60
  store ptr %1, ptr %4, align 8, !tbaa !60
  call void @llvm.lifetime.start.p0(i64 8, ptr %5) #3
  %6 = load ptr, ptr %3, align 8, !tbaa !60
  %7 = load i64, ptr %6, align 8, !tbaa !16
  store i64 %7, ptr %5, align 8, !tbaa !16
  %8 = load ptr, ptr %4, align 8, !tbaa !60
  %9 = load i64, ptr %8, align 8, !tbaa !16
  %10 = load ptr, ptr %3, align 8, !tbaa !60
  store i64 %9, ptr %10, align 8, !tbaa !16
  %11 = load i64, ptr %5, align 8, !tbaa !16
  %12 = load ptr, ptr %4, align 8, !tbaa !60
  store i64 %11, ptr %12, align 8, !tbaa !16
  call void @llvm.lifetime.end.p0(i64 8, ptr %5) #3
  ret void
}

; Function Attrs: inlinehint mustprogress nounwind uwtable
define linkonce_odr void @_ZSt4swapIP10grpc_sliceENSt9enable_ifIXsr6__and_ISt6__not_ISt15__is_tuple_likeIT_EESt21is_move_constructibleIS5_ESt18is_move_assignableIS5_EEE5valueEvE4typeERS5_SE_(ptr noundef nonnull align 8 dereferenceable(8) %0, ptr noundef nonnull align 8 dereferenceable(8) %1) #13 comdat {
  %3 = alloca ptr, align 8
  %4 = alloca ptr, align 8
  %5 = alloca ptr, align 8
  store ptr %0, ptr %3, align 8, !tbaa !57
  store ptr %1, ptr %4, align 8, !tbaa !57
  call void @llvm.lifetime.start.p0(i64 8, ptr %5) #3
  %6 = load ptr, ptr %3, align 8, !tbaa !57
  %7 = load ptr, ptr %6, align 8, !tbaa !17
  store ptr %7, ptr %5, align 8, !tbaa !17
  %8 = load ptr, ptr %4, align 8, !tbaa !57
  %9 = load ptr, ptr %8, align 8, !tbaa !17
  %10 = load ptr, ptr %3, align 8, !tbaa !57
  store ptr %9, ptr %10, align 8, !tbaa !17
  %11 = load ptr, ptr %5, align 8, !tbaa !17
  %12 = load ptr, ptr %4, align 8, !tbaa !57
  store ptr %11, ptr %12, align 8, !tbaa !17
  call void @llvm.lifetime.end.p0(i64 8, ptr %5) #3
  ret void
}

; Function Attrs: mustprogress uwtable
define void @grpc_slice_buffer_addn(ptr noundef %0, ptr noundef %1, i64 noundef %2) #4 {
  %4 = alloca ptr, align 8
  %5 = alloca ptr, align 8
  %6 = alloca i64, align 8
  %7 = alloca i64, align 8
  %8 = alloca %struct.grpc_slice, align 8
  store ptr %0, ptr %4, align 8, !tbaa !10
  store ptr %1, ptr %5, align 8, !tbaa !17
  store i64 %2, ptr %6, align 8, !tbaa !16
  call void @llvm.lifetime.start.p0(i64 8, ptr %7) #3
  store i64 0, ptr %7, align 8, !tbaa !16
  br label %9

9:                                                ; preds = %18, %3
  %10 = load i64, ptr %7, align 8, !tbaa !16
  %11 = load i64, ptr %6, align 8, !tbaa !16
  %12 = icmp ult i64 %10, %11
  br i1 %12, label %13, label %21

13:                                               ; preds = %9
  %14 = load ptr, ptr %4, align 8, !tbaa !10
  %15 = load ptr, ptr %5, align 8, !tbaa !17
  %16 = load i64, ptr %7, align 8, !tbaa !16
  %17 = getelementptr inbounds nuw %struct.grpc_slice, ptr %15, i64 %16
  call void @llvm.memcpy.p0.p0.i64(ptr align 8 %8, ptr align 8 %17, i64 32, i1 false), !tbaa.struct !24
  call void @grpc_slice_buffer_add(ptr noundef %14, ptr noundef byval(%struct.grpc_slice) align 8 %8)
  br label %18

18:                                               ; preds = %13
  %19 = load i64, ptr %7, align 8, !tbaa !16
  %20 = add i64 %19, 1
  store i64 %20, ptr %7, align 8, !tbaa !16
  br label %9, !llvm.loop !56

21:                                               ; preds = %9
  call void @llvm.lifetime.end.p0(i64 8, ptr %7) #3
  ret void
}

; Function Attrs: mustprogress nounwind uwtable
define void @grpc_slice_buffer_swap(ptr noundef %0, ptr noundef %1) #6 {
  %3 = alloca ptr, align 8
  %4 = alloca ptr, align 8
  %5 = alloca i64, align 8
  %6 = alloca i64, align 8
  %7 = alloca i64, align 8
  %8 = alloca i64, align 8
  %9 = alloca [6 x %struct.grpc_slice], align 16
  store ptr %0, ptr %3, align 8, !tbaa !10
  store ptr %1, ptr %4, align 8, !tbaa !10
  call void @llvm.lifetime.start.p0(i64 8, ptr %5) #3
  %10 = load ptr, ptr %3, align 8, !tbaa !10
  %11 = getelementptr inbounds nuw %struct.grpc_slice_buffer, ptr %10, i32 0, i32 1
  %12 = load ptr, ptr %11, align 8, !tbaa !18
  %13 = load ptr, ptr %3, align 8, !tbaa !10
  %14 = getelementptr inbounds nuw %struct.grpc_slice_buffer, ptr %13, i32 0, i32 0
  %15 = load ptr, ptr %14, align 8, !tbaa !54
  %16 = ptrtoint ptr %12 to i64
  %17 = ptrtoint ptr %15 to i64
  %18 = sub i64 %16, %17
  %19 = sdiv exact i64 %18, 32
  store i64 %19, ptr %5, align 8, !tbaa !16
  call void @llvm.lifetime.start.p0(i64 8, ptr %6) #3
  %20 = load ptr, ptr %4, align 8, !tbaa !10
  %21 = getelementptr inbounds nuw %struct.grpc_slice_buffer, ptr %20, i32 0, i32 1
  %22 = load ptr, ptr %21, align 8, !tbaa !18
  %23 = load ptr, ptr %4, align 8, !tbaa !10
  %24 = getelementptr inbounds nuw %struct.grpc_slice_buffer, ptr %23, i32 0, i32 0
  %25 = load ptr, ptr %24, align 8, !tbaa !54
  %26 = ptrtoint ptr %22 to i64
  %27 = ptrtoint ptr %25 to i64
  %28 = sub i64 %26, %27
  %29 = sdiv exact i64 %28, 32
  store i64 %29, ptr %6, align 8, !tbaa !16
  call void @llvm.lifetime.start.p0(i64 8, ptr %7) #3
  %30 = load ptr, ptr %3, align 8, !tbaa !10
  %31 = getelementptr inbounds nuw %struct.grpc_slice_buffer, ptr %30, i32 0, i32 2
  %32 = load i64, ptr %31, align 8, !tbaa !12
  %33 = load i64, ptr %5, align 8, !tbaa !16
  %34 = add i64 %32, %33
  store i64 %34, ptr %7, align 8, !tbaa !16
  call void @llvm.lifetime.start.p0(i64 8, ptr %8) #3
  %35 = load ptr, ptr %4, align 8, !tbaa !10
  %36 = getelementptr inbounds nuw %struct.grpc_slice_buffer, ptr %35, i32 0, i32 2
  %37 = load i64, ptr %36, align 8, !tbaa !12
  %38 = load i64, ptr %6, align 8, !tbaa !16
  %39 = add i64 %37, %38
  store i64 %39, ptr %8, align 8, !tbaa !16
  %40 = load ptr, ptr %3, align 8, !tbaa !10
  %41 = getelementptr inbounds nuw %struct.grpc_slice_buffer, ptr %40, i32 0, i32 0
  %42 = load ptr, ptr %41, align 8, !tbaa !54
  %43 = load ptr, ptr %3, align 8, !tbaa !10
  %44 = getelementptr inbounds nuw %struct.grpc_slice_buffer, ptr %43, i32 0, i32 5
  %45 = getelementptr inbounds [6 x %struct.grpc_slice], ptr %44, i64 0, i64 0
  %46 = icmp eq ptr %42, %45
  br i1 %46, label %47, label %96

47:                                               ; preds = %2
  %48 = load ptr, ptr %4, align 8, !tbaa !10
  %49 = getelementptr inbounds nuw %struct.grpc_slice_buffer, ptr %48, i32 0, i32 0
  %50 = load ptr, ptr %49, align 8, !tbaa !54
  %51 = load ptr, ptr %4, align 8, !tbaa !10
  %52 = getelementptr inbounds nuw %struct.grpc_slice_buffer, ptr %51, i32 0, i32 5
  %53 = getelementptr inbounds [6 x %struct.grpc_slice], ptr %52, i64 0, i64 0
  %54 = icmp eq ptr %50, %53
  br i1 %54, label %55, label %76

55:                                               ; preds = %47
  call void @llvm.lifetime.start.p0(i64 192, ptr %9) #3
  %56 = getelementptr inbounds [6 x %struct.grpc_slice], ptr %9, i64 0, i64 0
  %57 = load ptr, ptr %3, align 8, !tbaa !10
  %58 = getelementptr inbounds nuw %struct.grpc_slice_buffer, ptr %57, i32 0, i32 0
  %59 = load ptr, ptr %58, align 8, !tbaa !54
  %60 = load i64, ptr %7, align 8, !tbaa !16
  %61 = mul i64 %60, 32
  call void @llvm.memcpy.p0.p0.i64(ptr align 16 %56, ptr align 8 %59, i64 %61, i1 false)
  %62 = load ptr, ptr %3, align 8, !tbaa !10
  %63 = getelementptr inbounds nuw %struct.grpc_slice_buffer, ptr %62, i32 0, i32 0
  %64 = load ptr, ptr %63, align 8, !tbaa !54
  %65 = load ptr, ptr %4, align 8, !tbaa !10
  %66 = getelementptr inbounds nuw %struct.grpc_slice_buffer, ptr %65, i32 0, i32 0
  %67 = load ptr, ptr %66, align 8, !tbaa !54
  %68 = load i64, ptr %8, align 8, !tbaa !16
  %69 = mul i64 %68, 32
  call void @llvm.memcpy.p0.p0.i64(ptr align 8 %64, ptr align 8 %67, i64 %69, i1 false)
  %70 = load ptr, ptr %4, align 8, !tbaa !10
  %71 = getelementptr inbounds nuw %struct.grpc_slice_buffer, ptr %70, i32 0, i32 0
  %72 = load ptr, ptr %71, align 8, !tbaa !54
  %73 = getelementptr inbounds [6 x %struct.grpc_slice], ptr %9, i64 0, i64 0
  %74 = load i64, ptr %7, align 8, !tbaa !16
  %75 = mul i64 %74, 32
  call void @llvm.memcpy.p0.p0.i64(ptr align 8 %72, ptr align 16 %73, i64 %75, i1 false)
  call void @llvm.lifetime.end.p0(i64 192, ptr %9) #3
  br label %95

76:                                               ; preds = %47
  %77 = load ptr, ptr %4, align 8, !tbaa !10
  %78 = getelementptr inbounds nuw %struct.grpc_slice_buffer, ptr %77, i32 0, i32 0
  %79 = load ptr, ptr %78, align 8, !tbaa !54
  %80 = load ptr, ptr %3, align 8, !tbaa !10
  %81 = getelementptr inbounds nuw %struct.grpc_slice_buffer, ptr %80, i32 0, i32 0
  store ptr %79, ptr %81, align 8, !tbaa !54
  %82 = load ptr, ptr %4, align 8, !tbaa !10
  %83 = getelementptr inbounds nuw %struct.grpc_slice_buffer, ptr %82, i32 0, i32 5
  %84 = getelementptr inbounds [6 x %struct.grpc_slice], ptr %83, i64 0, i64 0
  %85 = load ptr, ptr %4, align 8, !tbaa !10
  %86 = getelementptr inbounds nuw %struct.grpc_slice_buffer, ptr %85, i32 0, i32 0
  store ptr %84, ptr %86, align 8, !tbaa !54
  %87 = load ptr, ptr %4, align 8, !tbaa !10
  %88 = getelementptr inbounds nuw %struct.grpc_slice_buffer, ptr %87, i32 0, i32 0
  %89 = load ptr, ptr %88, align 8, !tbaa !54
  %90 = load ptr, ptr %3, align 8, !tbaa !10
  %91 = getelementptr inbounds nuw %struct.grpc_slice_buffer, ptr %90, i32 0, i32 5
  %92 = getelementptr inbounds [6 x %struct.grpc_slice], ptr %91, i64 0, i64 0
  %93 = load i64, ptr %7, align 8, !tbaa !16
  %94 = mul i64 %93, 32
  call void @llvm.memcpy.p0.p0.i64(ptr align 8 %89, ptr align 8 %92, i64 %94, i1 false)
  br label %95

95:                                               ; preds = %76, %55
  br label %129

96:                                               ; preds = %2
  %97 = load ptr, ptr %4, align 8, !tbaa !10
  %98 = getelementptr inbounds nuw %struct.grpc_slice_buffer, ptr %97, i32 0, i32 0
  %99 = load ptr, ptr %98, align 8, !tbaa !54
  %100 = load ptr, ptr %4, align 8, !tbaa !10
  %101 = getelementptr inbounds nuw %struct.grpc_slice_buffer, ptr %100, i32 0, i32 5
  %102 = getelementptr inbounds [6 x %struct.grpc_slice], ptr %101, i64 0, i64 0
  %103 = icmp eq ptr %99, %102
  br i1 %103, label %104, label %123

104:                                              ; preds = %96
  %105 = load ptr, ptr %3, align 8, !tbaa !10
  %106 = getelementptr inbounds nuw %struct.grpc_slice_buffer, ptr %105, i32 0, i32 0
  %107 = load ptr, ptr %106, align 8, !tbaa !54
  %108 = load ptr, ptr %4, align 8, !tbaa !10
  %109 = getelementptr inbounds nuw %struct.grpc_slice_buffer, ptr %108, i32 0, i32 0
  store ptr %107, ptr %109, align 8, !tbaa !54
  %110 = load ptr, ptr %3, align 8, !tbaa !10
  %111 = getelementptr inbounds nuw %struct.grpc_slice_buffer, ptr %110, i32 0, i32 5
  %112 = getelementptr inbounds [6 x %struct.grpc_slice], ptr %111, i64 0, i64 0
  %113 = load ptr, ptr %3, align 8, !tbaa !10
  %114 = getelementptr inbounds nuw %struct.grpc_slice_buffer, ptr %113, i32 0, i32 0
  store ptr %112, ptr %114, align 8, !tbaa !54
  %115 = load ptr, ptr %3, align 8, !tbaa !10
  %116 = getelementptr inbounds nuw %struct.grpc_slice_buffer, ptr %115, i32 0, i32 0
  %117 = load ptr, ptr %116, align 8, !tbaa !54
  %118 = load ptr, ptr %4, align 8, !tbaa !10
  %119 = getelementptr inbounds nuw %struct.grpc_slice_buffer, ptr %118, i32 0, i32 5
  %120 = getelementptr inbounds [6 x %struct.grpc_slice], ptr %119, i64 0, i64 0
  %121 = load i64, ptr %8, align 8, !tbaa !16
  %122 = mul i64 %121, 32
  call void @llvm.memcpy.p0.p0.i64(ptr align 8 %117, ptr align 8 %120, i64 %122, i1 false)
  br label %128

123:                                              ; preds = %96
  %124 = load ptr, ptr %3, align 8, !tbaa !10
  %125 = getelementptr inbounds nuw %struct.grpc_slice_buffer, ptr %124, i32 0, i32 0
  %126 = load ptr, ptr %4, align 8, !tbaa !10
  %127 = getelementptr inbounds nuw %struct.grpc_slice_buffer, ptr %126, i32 0, i32 0
  call void @_ZSt4swapIP10grpc_sliceENSt9enable_ifIXsr6__and_ISt6__not_ISt15__is_tuple_likeIT_EESt21is_move_constructibleIS5_ESt18is_move_assignableIS5_EEE5valueEvE4typeERS5_SE_(ptr noundef nonnull align 8 dereferenceable(8) %125, ptr noundef nonnull align 8 dereferenceable(8) %127) #3
  br label %128

128:                                              ; preds = %123, %104
  br label %129

129:                                              ; preds = %128, %95
  %130 = load ptr, ptr %3, align 8, !tbaa !10
  %131 = getelementptr inbounds nuw %struct.grpc_slice_buffer, ptr %130, i32 0, i32 0
  %132 = load ptr, ptr %131, align 8, !tbaa !54
  %133 = load i64, ptr %6, align 8, !tbaa !16
  %134 = getelementptr inbounds nuw %struct.grpc_slice, ptr %132, i64 %133
  %135 = load ptr, ptr %3, align 8, !tbaa !10
  %136 = getelementptr inbounds nuw %struct.grpc_slice_buffer, ptr %135, i32 0, i32 1
  store ptr %134, ptr %136, align 8, !tbaa !18
  %137 = load ptr, ptr %4, align 8, !tbaa !10
  %138 = getelementptr inbounds nuw %struct.grpc_slice_buffer, ptr %137, i32 0, i32 0
  %139 = load ptr, ptr %138, align 8, !tbaa !54
  %140 = load i64, ptr %5, align 8, !tbaa !16
  %141 = getelementptr inbounds nuw %struct.grpc_slice, ptr %139, i64 %140
  %142 = load ptr, ptr %4, align 8, !tbaa !10
  %143 = getelementptr inbounds nuw %struct.grpc_slice_buffer, ptr %142, i32 0, i32 1
  store ptr %141, ptr %143, align 8, !tbaa !18
  %144 = load ptr, ptr %3, align 8, !tbaa !10
  %145 = getelementptr inbounds nuw %struct.grpc_slice_buffer, ptr %144, i32 0, i32 2
  %146 = load ptr, ptr %4, align 8, !tbaa !10
  %147 = getelementptr inbounds nuw %struct.grpc_slice_buffer, ptr %146, i32 0, i32 2
  call void @_ZSt4swapImENSt9enable_ifIXsr6__and_ISt6__not_ISt15__is_tuple_likeIT_EESt21is_move_constructibleIS3_ESt18is_move_assignableIS3_EEE5valueEvE4typeERS3_SC_(ptr noundef nonnull align 8 dereferenceable(8) %145, ptr noundef nonnull align 8 dereferenceable(8) %147) #3
  %148 = load ptr, ptr %3, align 8, !tbaa !10
  %149 = getelementptr inbounds nuw %struct.grpc_slice_buffer, ptr %148, i32 0, i32 3
  %150 = load ptr, ptr %4, align 8, !tbaa !10
  %151 = getelementptr inbounds nuw %struct.grpc_slice_buffer, ptr %150, i32 0, i32 3
  call void @_ZSt4swapImENSt9enable_ifIXsr6__and_ISt6__not_ISt15__is_tuple_likeIT_EESt21is_move_constructibleIS3_ESt18is_move_assignableIS3_EEE5valueEvE4typeERS3_SC_(ptr noundef nonnull align 8 dereferenceable(8) %149, ptr noundef nonnull align 8 dereferenceable(8) %151) #3
  %152 = load ptr, ptr %3, align 8, !tbaa !10
  %153 = getelementptr inbounds nuw %struct.grpc_slice_buffer, ptr %152, i32 0, i32 4
  %154 = load ptr, ptr %4, align 8, !tbaa !10
  %155 = getelementptr inbounds nuw %struct.grpc_slice_buffer, ptr %154, i32 0, i32 4
  call void @_ZSt4swapImENSt9enable_ifIXsr6__and_ISt6__not_ISt15__is_tuple_likeIT_EESt21is_move_constructibleIS3_ESt18is_move_assignableIS3_EEE5valueEvE4typeERS3_SC_(ptr noundef nonnull align 8 dereferenceable(8) %153, ptr noundef nonnull align 8 dereferenceable(8) %155) #3
  call void @llvm.lifetime.end.p0(i64 8, ptr %8) #3
  call void @llvm.lifetime.end.p0(i64 8, ptr %7) #3
  call void @llvm.lifetime.end.p0(i64 8, ptr %6) #3
  call void @llvm.lifetime.end.p0(i64 8, ptr %5) #3
  ret void
}

; Function Attrs: mustprogress uwtable
define void @grpc_slice_buffer_move_into(ptr noundef %0, ptr noundef %1) #4 {
  %3 = alloca ptr, align 8
  %4 = alloca ptr, align 8
  store ptr %0, ptr %3, align 8, !tbaa !10
  store ptr %1, ptr %4, align 8, !tbaa !10
  %5 = load ptr, ptr %3, align 8, !tbaa !10
  %6 = getelementptr inbounds nuw %struct.grpc_slice_buffer, ptr %5, i32 0, i32 2
  %7 = load i64, ptr %6, align 8, !tbaa !12
  %8 = icmp eq i64 %7, 0
  br i1 %8, label %9, label %10

9:                                                ; preds = %2
  br label %30

10:                                               ; preds = %2
  %11 = load ptr, ptr %4, align 8, !tbaa !10
  %12 = getelementptr inbounds nuw %struct.grpc_slice_buffer, ptr %11, i32 0, i32 2
  %13 = load i64, ptr %12, align 8, !tbaa !12
  %14 = icmp eq i64 %13, 0
  br i1 %14, label %15, label %18

15:                                               ; preds = %10
  %16 = load ptr, ptr %3, align 8, !tbaa !10
  %17 = load ptr, ptr %4, align 8, !tbaa !10
  call void @grpc_slice_buffer_swap(ptr noundef %16, ptr noundef %17)
  br label %30

18:                                               ; preds = %10
  %19 = load ptr, ptr %4, align 8, !tbaa !10
  %20 = load ptr, ptr %3, align 8, !tbaa !10
  %21 = getelementptr inbounds nuw %struct.grpc_slice_buffer, ptr %20, i32 0, i32 1
  %22 = load ptr, ptr %21, align 8, !tbaa !18
  %23 = load ptr, ptr %3, align 8, !tbaa !10
  %24 = getelementptr inbounds nuw %struct.grpc_slice_buffer, ptr %23, i32 0, i32 2
  %25 = load i64, ptr %24, align 8, !tbaa !12
  call void @grpc_slice_buffer_addn(ptr noundef %19, ptr noundef %22, i64 noundef %25)
  %26 = load ptr, ptr %3, align 8, !tbaa !10
  %27 = getelementptr inbounds nuw %struct.grpc_slice_buffer, ptr %26, i32 0, i32 2
  store i64 0, ptr %27, align 8, !tbaa !12
  %28 = load ptr, ptr %3, align 8, !tbaa !10
  %29 = getelementptr inbounds nuw %struct.grpc_slice_buffer, ptr %28, i32 0, i32 4
  store i64 0, ptr %29, align 8, !tbaa !23
  br label %30

30:                                               ; preds = %18, %15, %9
  ret void
}