; Function Attrs: mustprogress uwtable
define void @grpc_slice_buffer_move_into(ptr noundef %0, ptr noundef %1) local_unnamed_addr #3 {
  %3 = alloca [6 x %struct.grpc_slice], align 16
  %4 = getelementptr inbounds nuw i8, ptr %0, i64 16
  %5 = load i64, ptr %4, align 8, !tbaa !13
  %6 = icmp eq i64 %5, 0
  br i1 %6, label %56, label %7

7:                                                ; preds = %2
  %8 = getelementptr inbounds nuw i8, ptr %1, i64 16
  %9 = load i64, ptr %8, align 8, !tbaa !13
  %10 = icmp eq i64 %9, 0
  %11 = getelementptr inbounds nuw i8, ptr %0, i64 8
  %12 = load ptr, ptr %11, align 8, !tbaa !17
  br i1 %10, label %13, label %.lr.ph.i

13:                                               ; preds = %7
  %14 = load ptr, ptr %0, align 8, !tbaa !25
  %15 = ptrtoint ptr %12 to i64
  %16 = ptrtoint ptr %14 to i64
  %17 = sub i64 %15, %16
  %18 = ashr exact i64 %17, 5
  %19 = getelementptr inbounds nuw i8, ptr %1, i64 8
  %20 = load ptr, ptr %19, align 8, !tbaa !17
  %21 = load ptr, ptr %1, align 8, !tbaa !25
  %22 = ptrtoint ptr %20 to i64
  %23 = ptrtoint ptr %21 to i64
  %24 = sub i64 %22, %23
  %25 = add i64 %18, %5
  %26 = getelementptr inbounds nuw i8, ptr %0, i64 40
  %27 = icmp eq ptr %14, %26
  %28 = getelementptr inbounds nuw i8, ptr %1, i64 40
  %29 = icmp eq ptr %21, %28
  br i1 %27, label %30, label %36

30:                                               ; preds = %13
  br i1 %29, label %31, label %34

31:                                               ; preds = %30
  call void @llvm.lifetime.start.p0(i64 192, ptr nonnull %3)
  %32 = shl i64 %25, 5
  call void @llvm.memcpy.p0.p0.i64(ptr nonnull align 16 %3, ptr align 8 %14, i64 %32, i1 false)
  tail call void @llvm.memcpy.p0.p0.i64(ptr align 8 %14, ptr align 8 %21, i64 %24, i1 false)
  %33 = load ptr, ptr %1, align 8, !tbaa !25
  call void @llvm.memcpy.p0.p0.i64(ptr align 8 %33, ptr nonnull align 16 %3, i64 %32, i1 false)
  call void @llvm.lifetime.end.p0(i64 192, ptr nonnull %3)
  br label %grpc_slice_buffer_swap.exit

34:                                               ; preds = %30
  store ptr %21, ptr %0, align 8, !tbaa !25
  store ptr %28, ptr %1, align 8, !tbaa !25
  %35 = shl i64 %25, 5
  tail call void @llvm.memcpy.p0.p0.i64(ptr nonnull align 8 %28, ptr nonnull align 8 %26, i64 %35, i1 false)
  br label %grpc_slice_buffer_swap.exit

36:                                               ; preds = %13
  br i1 %29, label %37, label %38

37:                                               ; preds = %36
  store ptr %14, ptr %1, align 8, !tbaa !25
  store ptr %26, ptr %0, align 8, !tbaa !25
  tail call void @llvm.memcpy.p0.p0.i64(ptr nonnull align 8 %26, ptr nonnull align 8 %28, i64 %24, i1 false)
  br label %grpc_slice_buffer_swap.exit

38:                                               ; preds = %36
  store ptr %21, ptr %0, align 8, !tbaa !64
  store ptr %14, ptr %1, align 8, !tbaa !64
  br label %grpc_slice_buffer_swap.exit

grpc_slice_buffer_swap.exit:                      ; preds = %31, %34, %37, %38
  %39 = load ptr, ptr %0, align 8, !tbaa !25
  %40 = getelementptr inbounds nuw i8, ptr %39, i64 %24
  store ptr %40, ptr %11, align 8, !tbaa !17
  %41 = load ptr, ptr %1, align 8, !tbaa !25
  %42 = getelementptr inbounds nuw i8, ptr %41, i64 %17
  store ptr %42, ptr %19, align 8, !tbaa !17
  %43 = load i64, ptr %4, align 8, !tbaa !65
  %44 = load i64, ptr %8, align 8, !tbaa !65
  store i64 %44, ptr %4, align 8, !tbaa !65
  store i64 %43, ptr %8, align 8, !tbaa !65
  %45 = getelementptr inbounds nuw i8, ptr %0, i64 24
  %46 = getelementptr inbounds nuw i8, ptr %1, i64 24
  %47 = load i64, ptr %45, align 8, !tbaa !65
  %48 = load i64, ptr %46, align 8, !tbaa !65
  store i64 %48, ptr %45, align 8, !tbaa !65
  store i64 %47, ptr %46, align 8, !tbaa !65
  %49 = getelementptr inbounds nuw i8, ptr %0, i64 32
  %50 = getelementptr inbounds nuw i8, ptr %1, i64 32
  %51 = load i64, ptr %49, align 8, !tbaa !65
  %52 = load i64, ptr %50, align 8, !tbaa !65
  store i64 %52, ptr %49, align 8, !tbaa !65
  store i64 %51, ptr %50, align 8, !tbaa !65
  br label %56

.lr.ph.i:                                         ; preds = %7, %.lr.ph.i
  %.05.i = phi i64 [ %54, %.lr.ph.i ], [ 0, %7 ]
  %53 = getelementptr inbounds nuw %struct.grpc_slice, ptr %12, i64 %.05.i
  tail call void @grpc_slice_buffer_add(ptr noundef nonnull %1, ptr noundef nonnull byval(%struct.grpc_slice) align 8 %53)
  %54 = add nuw i64 %.05.i, 1
  %exitcond.not.i = icmp eq i64 %54, %5
  br i1 %exitcond.not.i, label %grpc_slice_buffer_addn.exit, label %.lr.ph.i, !llvm.loop !63

grpc_slice_buffer_addn.exit:                      ; preds = %.lr.ph.i
  store i64 0, ptr %4, align 8, !tbaa !13
  %55 = getelementptr inbounds nuw i8, ptr %0, i64 32
  store i64 0, ptr %55, align 8, !tbaa !20
  br label %56

56:                                               ; preds = %2, %grpc_slice_buffer_addn.exit, %grpc_slice_buffer_swap.exit
  ret void
}